
7 segment display increment decrement.elf:     file format elf32-avr

Sections:
Idx Name          Size      VMA       LMA       File off  Algn
  0 .text         00000472  00000000  00000000  00000054  2**1
                  CONTENTS, ALLOC, LOAD, READONLY, CODE
  1 .stab         000006cc  00000000  00000000  000004c8  2**2
                  CONTENTS, READONLY, DEBUGGING
  2 .stabstr      00000085  00000000  00000000  00000b94  2**0
                  CONTENTS, READONLY, DEBUGGING
  3 .debug_aranges 00000020  00000000  00000000  00000c19  2**0
                  CONTENTS, READONLY, DEBUGGING
  4 .debug_pubnames 0000001b  00000000  00000000  00000c39  2**0
                  CONTENTS, READONLY, DEBUGGING
  5 .debug_info   000000bc  00000000  00000000  00000c54  2**0
                  CONTENTS, READONLY, DEBUGGING
  6 .debug_abbrev 00000068  00000000  00000000  00000d10  2**0
                  CONTENTS, READONLY, DEBUGGING
  7 .debug_line   000004b8  00000000  00000000  00000d78  2**0
                  CONTENTS, READONLY, DEBUGGING
  8 .debug_frame  00000020  00000000  00000000  00001230  2**2
                  CONTENTS, READONLY, DEBUGGING
  9 .debug_str    000000d4  00000000  00000000  00001250  2**0
                  CONTENTS, READONLY, DEBUGGING
 10 .debug_pubtypes 0000001e  00000000  00000000  00001324  2**0
                  CONTENTS, READONLY, DEBUGGING

Disassembly of section .text:

00000000 <__vectors>:
   0:	0c 94 2a 00 	jmp	0x54	; 0x54 <__ctors_end>
   4:	0c 94 34 00 	jmp	0x68	; 0x68 <__bad_interrupt>
   8:	0c 94 34 00 	jmp	0x68	; 0x68 <__bad_interrupt>
   c:	0c 94 34 00 	jmp	0x68	; 0x68 <__bad_interrupt>
  10:	0c 94 34 00 	jmp	0x68	; 0x68 <__bad_interrupt>
  14:	0c 94 34 00 	jmp	0x68	; 0x68 <__bad_interrupt>
  18:	0c 94 34 00 	jmp	0x68	; 0x68 <__bad_interrupt>
  1c:	0c 94 34 00 	jmp	0x68	; 0x68 <__bad_interrupt>
  20:	0c 94 34 00 	jmp	0x68	; 0x68 <__bad_interrupt>
  24:	0c 94 34 00 	jmp	0x68	; 0x68 <__bad_interrupt>
  28:	0c 94 34 00 	jmp	0x68	; 0x68 <__bad_interrupt>
  2c:	0c 94 34 00 	jmp	0x68	; 0x68 <__bad_interrupt>
  30:	0c 94 34 00 	jmp	0x68	; 0x68 <__bad_interrupt>
  34:	0c 94 34 00 	jmp	0x68	; 0x68 <__bad_interrupt>
  38:	0c 94 34 00 	jmp	0x68	; 0x68 <__bad_interrupt>
  3c:	0c 94 34 00 	jmp	0x68	; 0x68 <__bad_interrupt>
  40:	0c 94 34 00 	jmp	0x68	; 0x68 <__bad_interrupt>
  44:	0c 94 34 00 	jmp	0x68	; 0x68 <__bad_interrupt>
  48:	0c 94 34 00 	jmp	0x68	; 0x68 <__bad_interrupt>
  4c:	0c 94 34 00 	jmp	0x68	; 0x68 <__bad_interrupt>
  50:	0c 94 34 00 	jmp	0x68	; 0x68 <__bad_interrupt>

00000054 <__ctors_end>:
  54:	11 24       	eor	r1, r1
  56:	1f be       	out	0x3f, r1	; 63
  58:	cf e5       	ldi	r28, 0x5F	; 95
  5a:	d4 e0       	ldi	r29, 0x04	; 4
  5c:	de bf       	out	0x3e, r29	; 62
  5e:	cd bf       	out	0x3d, r28	; 61
  60:	0e 94 36 00 	call	0x6c	; 0x6c <main>
  64:	0c 94 37 02 	jmp	0x46e	; 0x46e <_exit>

00000068 <__bad_interrupt>:
  68:	0c 94 00 00 	jmp	0	; 0x0 <__vectors>

0000006c <main>:
 */ 

#include <avr/io.h>

int main(void)	
{
  6c:	df 93       	push	r29
  6e:	cf 93       	push	r28
  70:	00 d0       	rcall	.+0      	; 0x72 <main+0x6>
  72:	00 d0       	rcall	.+0      	; 0x74 <main+0x8>
  74:	0f 92       	push	r0
  76:	cd b7       	in	r28, 0x3d	; 61
  78:	de b7       	in	r29, 0x3e	; 62
	DDRA=0x00;
  7a:	8a e3       	ldi	r24, 0x3A	; 58
  7c:	90 e0       	ldi	r25, 0x00	; 0
  7e:	fc 01       	movw	r30, r24
  80:	10 82       	st	Z, r1
	DDRC=0xff;
  82:	84 e3       	ldi	r24, 0x34	; 52
  84:	90 e0       	ldi	r25, 0x00	; 0
  86:	2f ef       	ldi	r18, 0xFF	; 255
  88:	fc 01       	movw	r30, r24
  8a:	20 83       	st	Z, r18
	PORTA=0xff;
  8c:	8b e3       	ldi	r24, 0x3B	; 59
  8e:	90 e0       	ldi	r25, 0x00	; 0
  90:	2f ef       	ldi	r18, 0xFF	; 255
  92:	fc 01       	movw	r30, r24
  94:	20 83       	st	Z, r18
	int f=0,d=0;
  96:	1a 82       	std	Y+2, r1	; 0x02
  98:	19 82       	std	Y+1, r1	; 0x01
  9a:	1c 82       	std	Y+4, r1	; 0x04
  9c:	1b 82       	std	Y+3, r1	; 0x03
  9e:	03 c0       	rjmp	.+6      	; 0xa6 <main+0x3a>
		   PORTC=0x6f;
		   
	   }
	
	    
    }
  a0:	00 00       	nop
  a2:	01 c0       	rjmp	.+2      	; 0xa6 <main+0x3a>
  a4:	00 00       	nop
	DDRC=0xff;
	PORTA=0xff;
	int f=0,d=0;
    while(1)
    {
       char i=PINA;
  a6:	89 e3       	ldi	r24, 0x39	; 57
  a8:	90 e0       	ldi	r25, 0x00	; 0
  aa:	fc 01       	movw	r30, r24
  ac:	80 81       	ld	r24, Z
  ae:	8d 83       	std	Y+5, r24	; 0x05
	   i=i&0xff;
	   if (i==0xfe&&f==0)
  b0:	8d 81       	ldd	r24, Y+5	; 0x05
  b2:	8e 3f       	cpi	r24, 0xFE	; 254
  b4:	69 f4       	brne	.+26     	; 0xd0 <main+0x64>
  b6:	89 81       	ldd	r24, Y+1	; 0x01
  b8:	9a 81       	ldd	r25, Y+2	; 0x02
  ba:	00 97       	sbiw	r24, 0x00	; 0
  bc:	49 f4       	brne	.+18     	; 0xd0 <main+0x64>
	   {
		   PORTC=0xbf;
  be:	85 e3       	ldi	r24, 0x35	; 53
  c0:	90 e0       	ldi	r25, 0x00	; 0
  c2:	2f eb       	ldi	r18, 0xBF	; 191
  c4:	fc 01       	movw	r30, r24
  c6:	20 83       	st	Z, r18
		   f=1;
  c8:	81 e0       	ldi	r24, 0x01	; 1
  ca:	90 e0       	ldi	r25, 0x00	; 0
  cc:	9a 83       	std	Y+2, r25	; 0x02
  ce:	89 83       	std	Y+1, r24	; 0x01
	   }
	   if (i==0xff&&f==1)
  d0:	8d 81       	ldd	r24, Y+5	; 0x05
  d2:	8f 3f       	cpi	r24, 0xFF	; 255
  d4:	49 f4       	brne	.+18     	; 0xe8 <main+0x7c>
  d6:	89 81       	ldd	r24, Y+1	; 0x01
  d8:	9a 81       	ldd	r25, Y+2	; 0x02
  da:	81 30       	cpi	r24, 0x01	; 1
  dc:	91 05       	cpc	r25, r1
  de:	21 f4       	brne	.+8      	; 0xe8 <main+0x7c>
	   {
		   f=2;
  e0:	82 e0       	ldi	r24, 0x02	; 2
  e2:	90 e0       	ldi	r25, 0x00	; 0
  e4:	9a 83       	std	Y+2, r25	; 0x02
  e6:	89 83       	std	Y+1, r24	; 0x01
	   }
	   if (i==0x7f&&f==2)
  e8:	8d 81       	ldd	r24, Y+5	; 0x05
  ea:	8f 37       	cpi	r24, 0x7F	; 127
  ec:	71 f4       	brne	.+28     	; 0x10a <main+0x9e>
  ee:	89 81       	ldd	r24, Y+1	; 0x01
  f0:	9a 81       	ldd	r25, Y+2	; 0x02
  f2:	82 30       	cpi	r24, 0x02	; 2
  f4:	91 05       	cpc	r25, r1
  f6:	49 f4       	brne	.+18     	; 0x10a <main+0x9e>
	   {
		   f=1;
  f8:	81 e0       	ldi	r24, 0x01	; 1
  fa:	90 e0       	ldi	r25, 0x00	; 0
  fc:	9a 83       	std	Y+2, r25	; 0x02
  fe:	89 83       	std	Y+1, r24	; 0x01
		   PORTC=0xbf;
 100:	85 e3       	ldi	r24, 0x35	; 53
 102:	90 e0       	ldi	r25, 0x00	; 0
 104:	2f eb       	ldi	r18, 0xBF	; 191
 106:	fc 01       	movw	r30, r24
 108:	20 83       	st	Z, r18
	   }
	   
	   if (i==0xfe&&f==2)
 10a:	8d 81       	ldd	r24, Y+5	; 0x05
 10c:	8e 3f       	cpi	r24, 0xFE	; 254
 10e:	71 f4       	brne	.+28     	; 0x12c <main+0xc0>
 110:	89 81       	ldd	r24, Y+1	; 0x01
 112:	9a 81       	ldd	r25, Y+2	; 0x02
 114:	82 30       	cpi	r24, 0x02	; 2
 116:	91 05       	cpc	r25, r1
 118:	49 f4       	brne	.+18     	; 0x12c <main+0xc0>
	   {
		  f=3;
 11a:	83 e0       	ldi	r24, 0x03	; 3
 11c:	90 e0       	ldi	r25, 0x00	; 0
 11e:	9a 83       	std	Y+2, r25	; 0x02
 120:	89 83       	std	Y+1, r24	; 0x01
		  PORTC=0x06;  
 122:	85 e3       	ldi	r24, 0x35	; 53
 124:	90 e0       	ldi	r25, 0x00	; 0
 126:	26 e0       	ldi	r18, 0x06	; 6
 128:	fc 01       	movw	r30, r24
 12a:	20 83       	st	Z, r18
	   }
	
	   if (i==0xff&&f==3)
 12c:	8d 81       	ldd	r24, Y+5	; 0x05
 12e:	8f 3f       	cpi	r24, 0xFF	; 255
 130:	49 f4       	brne	.+18     	; 0x144 <main+0xd8>
 132:	89 81       	ldd	r24, Y+1	; 0x01
 134:	9a 81       	ldd	r25, Y+2	; 0x02
 136:	83 30       	cpi	r24, 0x03	; 3
 138:	91 05       	cpc	r25, r1
 13a:	21 f4       	brne	.+8      	; 0x144 <main+0xd8>
	   {
		   f=4;
 13c:	84 e0       	ldi	r24, 0x04	; 4
 13e:	90 e0       	ldi	r25, 0x00	; 0
 140:	9a 83       	std	Y+2, r25	; 0x02
 142:	89 83       	std	Y+1, r24	; 0x01
	   }
	   if (i==0x7f&&f==4)
 144:	8d 81       	ldd	r24, Y+5	; 0x05
 146:	8f 37       	cpi	r24, 0x7F	; 127
 148:	71 f4       	brne	.+28     	; 0x166 <main+0xfa>
 14a:	89 81       	ldd	r24, Y+1	; 0x01
 14c:	9a 81       	ldd	r25, Y+2	; 0x02
 14e:	84 30       	cpi	r24, 0x04	; 4
 150:	91 05       	cpc	r25, r1
 152:	49 f4       	brne	.+18     	; 0x166 <main+0xfa>
	   {
	     f=1;
 154:	81 e0       	ldi	r24, 0x01	; 1
 156:	90 e0       	ldi	r25, 0x00	; 0
 158:	9a 83       	std	Y+2, r25	; 0x02
 15a:	89 83       	std	Y+1, r24	; 0x01
		 PORTC=0xbf;
 15c:	85 e3       	ldi	r24, 0x35	; 53
 15e:	90 e0       	ldi	r25, 0x00	; 0
 160:	2f eb       	ldi	r18, 0xBF	; 191
 162:	fc 01       	movw	r30, r24
 164:	20 83       	st	Z, r18
	   }
	   if (i==0xfe&&f==4)
 166:	8d 81       	ldd	r24, Y+5	; 0x05
 168:	8e 3f       	cpi	r24, 0xFE	; 254
 16a:	71 f4       	brne	.+28     	; 0x188 <main+0x11c>
 16c:	89 81       	ldd	r24, Y+1	; 0x01
 16e:	9a 81       	ldd	r25, Y+2	; 0x02
 170:	84 30       	cpi	r24, 0x04	; 4
 172:	91 05       	cpc	r25, r1
 174:	49 f4       	brne	.+18     	; 0x188 <main+0x11c>
	   {
		   f=5;
 176:	85 e0       	ldi	r24, 0x05	; 5
 178:	90 e0       	ldi	r25, 0x00	; 0
 17a:	9a 83       	std	Y+2, r25	; 0x02
 17c:	89 83       	std	Y+1, r24	; 0x01
		   PORTC=0x5b;
 17e:	85 e3       	ldi	r24, 0x35	; 53
 180:	90 e0       	ldi	r25, 0x00	; 0
 182:	2b e5       	ldi	r18, 0x5B	; 91
 184:	fc 01       	movw	r30, r24
 186:	20 83       	st	Z, r18
	   }
	   if (i==0xff&&f==5)
 188:	8d 81       	ldd	r24, Y+5	; 0x05
 18a:	8f 3f       	cpi	r24, 0xFF	; 255
 18c:	49 f4       	brne	.+18     	; 0x1a0 <main+0x134>
 18e:	89 81       	ldd	r24, Y+1	; 0x01
 190:	9a 81       	ldd	r25, Y+2	; 0x02
 192:	85 30       	cpi	r24, 0x05	; 5
 194:	91 05       	cpc	r25, r1
 196:	21 f4       	brne	.+8      	; 0x1a0 <main+0x134>
	   {
		   f=6;
 198:	86 e0       	ldi	r24, 0x06	; 6
 19a:	90 e0       	ldi	r25, 0x00	; 0
 19c:	9a 83       	std	Y+2, r25	; 0x02
 19e:	89 83       	std	Y+1, r24	; 0x01
	   }
	   if (i==0x7f&&f==6)
 1a0:	8d 81       	ldd	r24, Y+5	; 0x05
 1a2:	8f 37       	cpi	r24, 0x7F	; 127
 1a4:	71 f4       	brne	.+28     	; 0x1c2 <main+0x156>
 1a6:	89 81       	ldd	r24, Y+1	; 0x01
 1a8:	9a 81       	ldd	r25, Y+2	; 0x02
 1aa:	86 30       	cpi	r24, 0x06	; 6
 1ac:	91 05       	cpc	r25, r1
 1ae:	49 f4       	brne	.+18     	; 0x1c2 <main+0x156>
	   {
		   f=3;
 1b0:	83 e0       	ldi	r24, 0x03	; 3
 1b2:	90 e0       	ldi	r25, 0x00	; 0
 1b4:	9a 83       	std	Y+2, r25	; 0x02
 1b6:	89 83       	std	Y+1, r24	; 0x01
		   PORTC=0x06;
 1b8:	85 e3       	ldi	r24, 0x35	; 53
 1ba:	90 e0       	ldi	r25, 0x00	; 0
 1bc:	26 e0       	ldi	r18, 0x06	; 6
 1be:	fc 01       	movw	r30, r24
 1c0:	20 83       	st	Z, r18
	   }
	   if (i==0xfe&&f==6)
 1c2:	8d 81       	ldd	r24, Y+5	; 0x05
 1c4:	8e 3f       	cpi	r24, 0xFE	; 254
 1c6:	71 f4       	brne	.+28     	; 0x1e4 <main+0x178>
 1c8:	89 81       	ldd	r24, Y+1	; 0x01
 1ca:	9a 81       	ldd	r25, Y+2	; 0x02
 1cc:	86 30       	cpi	r24, 0x06	; 6
 1ce:	91 05       	cpc	r25, r1
 1d0:	49 f4       	brne	.+18     	; 0x1e4 <main+0x178>
	   {
		   f=7;
 1d2:	87 e0       	ldi	r24, 0x07	; 7
 1d4:	90 e0       	ldi	r25, 0x00	; 0
 1d6:	9a 83       	std	Y+2, r25	; 0x02
 1d8:	89 83       	std	Y+1, r24	; 0x01
		   PORTC=0x4f;
 1da:	85 e3       	ldi	r24, 0x35	; 53
 1dc:	90 e0       	ldi	r25, 0x00	; 0
 1de:	2f e4       	ldi	r18, 0x4F	; 79
 1e0:	fc 01       	movw	r30, r24
 1e2:	20 83       	st	Z, r18
	   }
	   if (i==0xff&&f==7)
 1e4:	8d 81       	ldd	r24, Y+5	; 0x05
 1e6:	8f 3f       	cpi	r24, 0xFF	; 255
 1e8:	49 f4       	brne	.+18     	; 0x1fc <main+0x190>
 1ea:	89 81       	ldd	r24, Y+1	; 0x01
 1ec:	9a 81       	ldd	r25, Y+2	; 0x02
 1ee:	87 30       	cpi	r24, 0x07	; 7
 1f0:	91 05       	cpc	r25, r1
 1f2:	21 f4       	brne	.+8      	; 0x1fc <main+0x190>
	   {
		   f=8;
 1f4:	88 e0       	ldi	r24, 0x08	; 8
 1f6:	90 e0       	ldi	r25, 0x00	; 0
 1f8:	9a 83       	std	Y+2, r25	; 0x02
 1fa:	89 83       	std	Y+1, r24	; 0x01
	   }
	   if (i==0x7f&&f==8)
 1fc:	8d 81       	ldd	r24, Y+5	; 0x05
 1fe:	8f 37       	cpi	r24, 0x7F	; 127
 200:	71 f4       	brne	.+28     	; 0x21e <main+0x1b2>
 202:	89 81       	ldd	r24, Y+1	; 0x01
 204:	9a 81       	ldd	r25, Y+2	; 0x02
 206:	88 30       	cpi	r24, 0x08	; 8
 208:	91 05       	cpc	r25, r1
 20a:	49 f4       	brne	.+18     	; 0x21e <main+0x1b2>
	   {
		   f=5;
 20c:	85 e0       	ldi	r24, 0x05	; 5
 20e:	90 e0       	ldi	r25, 0x00	; 0
 210:	9a 83       	std	Y+2, r25	; 0x02
 212:	89 83       	std	Y+1, r24	; 0x01
		   PORTC=0x5b;
 214:	85 e3       	ldi	r24, 0x35	; 53
 216:	90 e0       	ldi	r25, 0x00	; 0
 218:	2b e5       	ldi	r18, 0x5B	; 91
 21a:	fc 01       	movw	r30, r24
 21c:	20 83       	st	Z, r18
	   }
	   if (i==0xfe&&f==8)
 21e:	8d 81       	ldd	r24, Y+5	; 0x05
 220:	8e 3f       	cpi	r24, 0xFE	; 254
 222:	71 f4       	brne	.+28     	; 0x240 <main+0x1d4>
 224:	89 81       	ldd	r24, Y+1	; 0x01
 226:	9a 81       	ldd	r25, Y+2	; 0x02
 228:	88 30       	cpi	r24, 0x08	; 8
 22a:	91 05       	cpc	r25, r1
 22c:	49 f4       	brne	.+18     	; 0x240 <main+0x1d4>
	   {
		   f=9;
 22e:	89 e0       	ldi	r24, 0x09	; 9
 230:	90 e0       	ldi	r25, 0x00	; 0
 232:	9a 83       	std	Y+2, r25	; 0x02
 234:	89 83       	std	Y+1, r24	; 0x01
		   PORTC=0x66;
 236:	85 e3       	ldi	r24, 0x35	; 53
 238:	90 e0       	ldi	r25, 0x00	; 0
 23a:	26 e6       	ldi	r18, 0x66	; 102
 23c:	fc 01       	movw	r30, r24
 23e:	20 83       	st	Z, r18
	   }
	   if (i==0xff&&f==9)
 240:	8d 81       	ldd	r24, Y+5	; 0x05
 242:	8f 3f       	cpi	r24, 0xFF	; 255
 244:	49 f4       	brne	.+18     	; 0x258 <main+0x1ec>
 246:	89 81       	ldd	r24, Y+1	; 0x01
 248:	9a 81       	ldd	r25, Y+2	; 0x02
 24a:	89 30       	cpi	r24, 0x09	; 9
 24c:	91 05       	cpc	r25, r1
 24e:	21 f4       	brne	.+8      	; 0x258 <main+0x1ec>
	   {
		   f=10;
 250:	8a e0       	ldi	r24, 0x0A	; 10
 252:	90 e0       	ldi	r25, 0x00	; 0
 254:	9a 83       	std	Y+2, r25	; 0x02
 256:	89 83       	std	Y+1, r24	; 0x01
	   }
	   if (i==0x7f&&f==10)
 258:	8d 81       	ldd	r24, Y+5	; 0x05
 25a:	8f 37       	cpi	r24, 0x7F	; 127
 25c:	71 f4       	brne	.+28     	; 0x27a <main+0x20e>
 25e:	89 81       	ldd	r24, Y+1	; 0x01
 260:	9a 81       	ldd	r25, Y+2	; 0x02
 262:	8a 30       	cpi	r24, 0x0A	; 10
 264:	91 05       	cpc	r25, r1
 266:	49 f4       	brne	.+18     	; 0x27a <main+0x20e>
	   {
		   f=7;
 268:	87 e0       	ldi	r24, 0x07	; 7
 26a:	90 e0       	ldi	r25, 0x00	; 0
 26c:	9a 83       	std	Y+2, r25	; 0x02
 26e:	89 83       	std	Y+1, r24	; 0x01
		   PORTC=0x4f;
 270:	85 e3       	ldi	r24, 0x35	; 53
 272:	90 e0       	ldi	r25, 0x00	; 0
 274:	2f e4       	ldi	r18, 0x4F	; 79
 276:	fc 01       	movw	r30, r24
 278:	20 83       	st	Z, r18
	   }
	   if (i==0xfe&&f==10)
 27a:	8d 81       	ldd	r24, Y+5	; 0x05
 27c:	8e 3f       	cpi	r24, 0xFE	; 254
 27e:	71 f4       	brne	.+28     	; 0x29c <main+0x230>
 280:	89 81       	ldd	r24, Y+1	; 0x01
 282:	9a 81       	ldd	r25, Y+2	; 0x02
 284:	8a 30       	cpi	r24, 0x0A	; 10
 286:	91 05       	cpc	r25, r1
 288:	49 f4       	brne	.+18     	; 0x29c <main+0x230>
	   {
		   f=11;
 28a:	8b e0       	ldi	r24, 0x0B	; 11
 28c:	90 e0       	ldi	r25, 0x00	; 0
 28e:	9a 83       	std	Y+2, r25	; 0x02
 290:	89 83       	std	Y+1, r24	; 0x01
		   PORTC=0x6d;
 292:	85 e3       	ldi	r24, 0x35	; 53
 294:	90 e0       	ldi	r25, 0x00	; 0
 296:	2d e6       	ldi	r18, 0x6D	; 109
 298:	fc 01       	movw	r30, r24
 29a:	20 83       	st	Z, r18
	   }
	   if (i==0xff&&f==11)
 29c:	8d 81       	ldd	r24, Y+5	; 0x05
 29e:	8f 3f       	cpi	r24, 0xFF	; 255
 2a0:	49 f4       	brne	.+18     	; 0x2b4 <main+0x248>
 2a2:	89 81       	ldd	r24, Y+1	; 0x01
 2a4:	9a 81       	ldd	r25, Y+2	; 0x02
 2a6:	8b 30       	cpi	r24, 0x0B	; 11
 2a8:	91 05       	cpc	r25, r1
 2aa:	21 f4       	brne	.+8      	; 0x2b4 <main+0x248>
	   {
		   f=12;
 2ac:	8c e0       	ldi	r24, 0x0C	; 12
 2ae:	90 e0       	ldi	r25, 0x00	; 0
 2b0:	9a 83       	std	Y+2, r25	; 0x02
 2b2:	89 83       	std	Y+1, r24	; 0x01
	   }
	   if (i==0x7f&&f==12)
 2b4:	8d 81       	ldd	r24, Y+5	; 0x05
 2b6:	8f 37       	cpi	r24, 0x7F	; 127
 2b8:	71 f4       	brne	.+28     	; 0x2d6 <main+0x26a>
 2ba:	89 81       	ldd	r24, Y+1	; 0x01
 2bc:	9a 81       	ldd	r25, Y+2	; 0x02
 2be:	8c 30       	cpi	r24, 0x0C	; 12
 2c0:	91 05       	cpc	r25, r1
 2c2:	49 f4       	brne	.+18     	; 0x2d6 <main+0x26a>
	   {
		   f=9;
 2c4:	89 e0       	ldi	r24, 0x09	; 9
 2c6:	90 e0       	ldi	r25, 0x00	; 0
 2c8:	9a 83       	std	Y+2, r25	; 0x02
 2ca:	89 83       	std	Y+1, r24	; 0x01
		   PORTC=0x66;
 2cc:	85 e3       	ldi	r24, 0x35	; 53
 2ce:	90 e0       	ldi	r25, 0x00	; 0
 2d0:	26 e6       	ldi	r18, 0x66	; 102
 2d2:	fc 01       	movw	r30, r24
 2d4:	20 83       	st	Z, r18
	   }
	   if (i==0xfe&&f==12)
 2d6:	8d 81       	ldd	r24, Y+5	; 0x05
 2d8:	8e 3f       	cpi	r24, 0xFE	; 254
 2da:	71 f4       	brne	.+28     	; 0x2f8 <main+0x28c>
 2dc:	89 81       	ldd	r24, Y+1	; 0x01
 2de:	9a 81       	ldd	r25, Y+2	; 0x02
 2e0:	8c 30       	cpi	r24, 0x0C	; 12
 2e2:	91 05       	cpc	r25, r1
 2e4:	49 f4       	brne	.+18     	; 0x2f8 <main+0x28c>
	   {
		   f=13;
 2e6:	8d e0       	ldi	r24, 0x0D	; 13
 2e8:	90 e0       	ldi	r25, 0x00	; 0
 2ea:	9a 83       	std	Y+2, r25	; 0x02
 2ec:	89 83       	std	Y+1, r24	; 0x01
		   PORTC=0x7d;
 2ee:	85 e3       	ldi	r24, 0x35	; 53
 2f0:	90 e0       	ldi	r25, 0x00	; 0
 2f2:	2d e7       	ldi	r18, 0x7D	; 125
 2f4:	fc 01       	movw	r30, r24
 2f6:	20 83       	st	Z, r18
	   }
	   if (i==0xff&&f==13)
 2f8:	8d 81       	ldd	r24, Y+5	; 0x05
 2fa:	8f 3f       	cpi	r24, 0xFF	; 255
 2fc:	49 f4       	brne	.+18     	; 0x310 <main+0x2a4>
 2fe:	89 81       	ldd	r24, Y+1	; 0x01
 300:	9a 81       	ldd	r25, Y+2	; 0x02
 302:	8d 30       	cpi	r24, 0x0D	; 13
 304:	91 05       	cpc	r25, r1
 306:	21 f4       	brne	.+8      	; 0x310 <main+0x2a4>
	   {
		   f=14;
 308:	8e e0       	ldi	r24, 0x0E	; 14
 30a:	90 e0       	ldi	r25, 0x00	; 0
 30c:	9a 83       	std	Y+2, r25	; 0x02
 30e:	89 83       	std	Y+1, r24	; 0x01
	   }
	   if (i==0x7f&&f==14)
 310:	8d 81       	ldd	r24, Y+5	; 0x05
 312:	8f 37       	cpi	r24, 0x7F	; 127
 314:	71 f4       	brne	.+28     	; 0x332 <main+0x2c6>
 316:	89 81       	ldd	r24, Y+1	; 0x01
 318:	9a 81       	ldd	r25, Y+2	; 0x02
 31a:	8e 30       	cpi	r24, 0x0E	; 14
 31c:	91 05       	cpc	r25, r1
 31e:	49 f4       	brne	.+18     	; 0x332 <main+0x2c6>
	   {
		   f=11;
 320:	8b e0       	ldi	r24, 0x0B	; 11
 322:	90 e0       	ldi	r25, 0x00	; 0
 324:	9a 83       	std	Y+2, r25	; 0x02
 326:	89 83       	std	Y+1, r24	; 0x01
		   PORTC=0x6d;
 328:	85 e3       	ldi	r24, 0x35	; 53
 32a:	90 e0       	ldi	r25, 0x00	; 0
 32c:	2d e6       	ldi	r18, 0x6D	; 109
 32e:	fc 01       	movw	r30, r24
 330:	20 83       	st	Z, r18
	   }
	   if (i==0xfe&&f==14)
 332:	8d 81       	ldd	r24, Y+5	; 0x05
 334:	8e 3f       	cpi	r24, 0xFE	; 254
 336:	71 f4       	brne	.+28     	; 0x354 <main+0x2e8>
 338:	89 81       	ldd	r24, Y+1	; 0x01
 33a:	9a 81       	ldd	r25, Y+2	; 0x02
 33c:	8e 30       	cpi	r24, 0x0E	; 14
 33e:	91 05       	cpc	r25, r1
 340:	49 f4       	brne	.+18     	; 0x354 <main+0x2e8>
	   {
		   f=15;
 342:	8f e0       	ldi	r24, 0x0F	; 15
 344:	90 e0       	ldi	r25, 0x00	; 0
 346:	9a 83       	std	Y+2, r25	; 0x02
 348:	89 83       	std	Y+1, r24	; 0x01
		   PORTC=0x27;
 34a:	85 e3       	ldi	r24, 0x35	; 53
 34c:	90 e0       	ldi	r25, 0x00	; 0
 34e:	27 e2       	ldi	r18, 0x27	; 39
 350:	fc 01       	movw	r30, r24
 352:	20 83       	st	Z, r18
	   }
	   if (i==0xff&&f==15)
 354:	8d 81       	ldd	r24, Y+5	; 0x05
 356:	8f 3f       	cpi	r24, 0xFF	; 255
 358:	49 f4       	brne	.+18     	; 0x36c <main+0x300>
 35a:	89 81       	ldd	r24, Y+1	; 0x01
 35c:	9a 81       	ldd	r25, Y+2	; 0x02
 35e:	8f 30       	cpi	r24, 0x0F	; 15
 360:	91 05       	cpc	r25, r1
 362:	21 f4       	brne	.+8      	; 0x36c <main+0x300>
	   {
		   f=16;
 364:	80 e1       	ldi	r24, 0x10	; 16
 366:	90 e0       	ldi	r25, 0x00	; 0
 368:	9a 83       	std	Y+2, r25	; 0x02
 36a:	89 83       	std	Y+1, r24	; 0x01
	   }
	   if (i==0x7f&&f==16)
 36c:	8d 81       	ldd	r24, Y+5	; 0x05
 36e:	8f 37       	cpi	r24, 0x7F	; 127
 370:	71 f4       	brne	.+28     	; 0x38e <main+0x322>
 372:	89 81       	ldd	r24, Y+1	; 0x01
 374:	9a 81       	ldd	r25, Y+2	; 0x02
 376:	80 31       	cpi	r24, 0x10	; 16
 378:	91 05       	cpc	r25, r1
 37a:	49 f4       	brne	.+18     	; 0x38e <main+0x322>
	   {
		   f=13;
 37c:	8d e0       	ldi	r24, 0x0D	; 13
 37e:	90 e0       	ldi	r25, 0x00	; 0
 380:	9a 83       	std	Y+2, r25	; 0x02
 382:	89 83       	std	Y+1, r24	; 0x01
		   PORTC=0x7d;
 384:	85 e3       	ldi	r24, 0x35	; 53
 386:	90 e0       	ldi	r25, 0x00	; 0
 388:	2d e7       	ldi	r18, 0x7D	; 125
 38a:	fc 01       	movw	r30, r24
 38c:	20 83       	st	Z, r18
	   }
	   if (i==0xfe&&f==16)
 38e:	8d 81       	ldd	r24, Y+5	; 0x05
 390:	8e 3f       	cpi	r24, 0xFE	; 254
 392:	71 f4       	brne	.+28     	; 0x3b0 <main+0x344>
 394:	89 81       	ldd	r24, Y+1	; 0x01
 396:	9a 81       	ldd	r25, Y+2	; 0x02
 398:	80 31       	cpi	r24, 0x10	; 16
 39a:	91 05       	cpc	r25, r1
 39c:	49 f4       	brne	.+18     	; 0x3b0 <main+0x344>
	   {
		   f=17;
 39e:	81 e1       	ldi	r24, 0x11	; 17
 3a0:	90 e0       	ldi	r25, 0x00	; 0
 3a2:	9a 83       	std	Y+2, r25	; 0x02
 3a4:	89 83       	std	Y+1, r24	; 0x01
		   PORTC=0xff;
 3a6:	85 e3       	ldi	r24, 0x35	; 53
 3a8:	90 e0       	ldi	r25, 0x00	; 0
 3aa:	2f ef       	ldi	r18, 0xFF	; 255
 3ac:	fc 01       	movw	r30, r24
 3ae:	20 83       	st	Z, r18
	   }
	   if (i==0xff&&f==17)
 3b0:	8d 81       	ldd	r24, Y+5	; 0x05
 3b2:	8f 3f       	cpi	r24, 0xFF	; 255
 3b4:	49 f4       	brne	.+18     	; 0x3c8 <main+0x35c>
 3b6:	89 81       	ldd	r24, Y+1	; 0x01
 3b8:	9a 81       	ldd	r25, Y+2	; 0x02
 3ba:	81 31       	cpi	r24, 0x11	; 17
 3bc:	91 05       	cpc	r25, r1
 3be:	21 f4       	brne	.+8      	; 0x3c8 <main+0x35c>
	   {
		   f=18;
 3c0:	82 e1       	ldi	r24, 0x12	; 18
 3c2:	90 e0       	ldi	r25, 0x00	; 0
 3c4:	9a 83       	std	Y+2, r25	; 0x02
 3c6:	89 83       	std	Y+1, r24	; 0x01
	   }
	   if (i==0x7f&&f==18)
 3c8:	8d 81       	ldd	r24, Y+5	; 0x05
 3ca:	8f 37       	cpi	r24, 0x7F	; 127
 3cc:	71 f4       	brne	.+28     	; 0x3ea <main+0x37e>
 3ce:	89 81       	ldd	r24, Y+1	; 0x01
 3d0:	9a 81       	ldd	r25, Y+2	; 0x02
 3d2:	82 31       	cpi	r24, 0x12	; 18
 3d4:	91 05       	cpc	r25, r1
 3d6:	49 f4       	brne	.+18     	; 0x3ea <main+0x37e>
	   {
		   f=15;
 3d8:	8f e0       	ldi	r24, 0x0F	; 15
 3da:	90 e0       	ldi	r25, 0x00	; 0
 3dc:	9a 83       	std	Y+2, r25	; 0x02
 3de:	89 83       	std	Y+1, r24	; 0x01
		   PORTC=0x27;
 3e0:	85 e3       	ldi	r24, 0x35	; 53
 3e2:	90 e0       	ldi	r25, 0x00	; 0
 3e4:	27 e2       	ldi	r18, 0x27	; 39
 3e6:	fc 01       	movw	r30, r24
 3e8:	20 83       	st	Z, r18
	   }
	   if (i==0xfe&&f==18)
 3ea:	8d 81       	ldd	r24, Y+5	; 0x05
 3ec:	8e 3f       	cpi	r24, 0xFE	; 254
 3ee:	71 f4       	brne	.+28     	; 0x40c <main+0x3a0>
 3f0:	89 81       	ldd	r24, Y+1	; 0x01
 3f2:	9a 81       	ldd	r25, Y+2	; 0x02
 3f4:	82 31       	cpi	r24, 0x12	; 18
 3f6:	91 05       	cpc	r25, r1
 3f8:	49 f4       	brne	.+18     	; 0x40c <main+0x3a0>
	   {
		   f=19;
 3fa:	83 e1       	ldi	r24, 0x13	; 19
 3fc:	90 e0       	ldi	r25, 0x00	; 0
 3fe:	9a 83       	std	Y+2, r25	; 0x02
 400:	89 83       	std	Y+1, r24	; 0x01
		   PORTC=0x6f;
 402:	85 e3       	ldi	r24, 0x35	; 53
 404:	90 e0       	ldi	r25, 0x00	; 0
 406:	2f e6       	ldi	r18, 0x6F	; 111
 408:	fc 01       	movw	r30, r24
 40a:	20 83       	st	Z, r18
	   }
	    if (i==0xff&&f==19)
 40c:	8d 81       	ldd	r24, Y+5	; 0x05
 40e:	8f 3f       	cpi	r24, 0xFF	; 255
 410:	49 f4       	brne	.+18     	; 0x424 <main+0x3b8>
 412:	89 81       	ldd	r24, Y+1	; 0x01
 414:	9a 81       	ldd	r25, Y+2	; 0x02
 416:	83 31       	cpi	r24, 0x13	; 19
 418:	91 05       	cpc	r25, r1
 41a:	21 f4       	brne	.+8      	; 0x424 <main+0x3b8>
	   {
		   f=20;
 41c:	84 e1       	ldi	r24, 0x14	; 20
 41e:	90 e0       	ldi	r25, 0x00	; 0
 420:	9a 83       	std	Y+2, r25	; 0x02
 422:	89 83       	std	Y+1, r24	; 0x01
	   }
	   if (i==0x7f&&f==19)
 424:	8d 81       	ldd	r24, Y+5	; 0x05
 426:	8f 37       	cpi	r24, 0x7F	; 127
 428:	71 f4       	brne	.+28     	; 0x446 <main+0x3da>
 42a:	89 81       	ldd	r24, Y+1	; 0x01
 42c:	9a 81       	ldd	r25, Y+2	; 0x02
 42e:	83 31       	cpi	r24, 0x13	; 19
 430:	91 05       	cpc	r25, r1
 432:	49 f4       	brne	.+18     	; 0x446 <main+0x3da>
	   {
		   f=17;
 434:	81 e1       	ldi	r24, 0x11	; 17
 436:	90 e0       	ldi	r25, 0x00	; 0
 438:	9a 83       	std	Y+2, r25	; 0x02
 43a:	89 83       	std	Y+1, r24	; 0x01
		   PORTC=0xff;
 43c:	85 e3       	ldi	r24, 0x35	; 53
 43e:	90 e0       	ldi	r25, 0x00	; 0
 440:	2f ef       	ldi	r18, 0xFF	; 255
 442:	fc 01       	movw	r30, r24
 444:	20 83       	st	Z, r18
	   }
	   if (i==0x7f&&f==20)
 446:	8d 81       	ldd	r24, Y+5	; 0x05
 448:	8f 37       	cpi	r24, 0x7F	; 127
 44a:	09 f0       	breq	.+2      	; 0x44e <main+0x3e2>
 44c:	29 ce       	rjmp	.-942    	; 0xa0 <main+0x34>
 44e:	89 81       	ldd	r24, Y+1	; 0x01
 450:	9a 81       	ldd	r25, Y+2	; 0x02
 452:	84 31       	cpi	r24, 0x14	; 20
 454:	91 05       	cpc	r25, r1
 456:	09 f0       	breq	.+2      	; 0x45a <main+0x3ee>
 458:	25 ce       	rjmp	.-950    	; 0xa4 <main+0x38>
	   {
		   f=19;
 45a:	83 e1       	ldi	r24, 0x13	; 19
 45c:	90 e0       	ldi	r25, 0x00	; 0
 45e:	9a 83       	std	Y+2, r25	; 0x02
 460:	89 83       	std	Y+1, r24	; 0x01
		   PORTC=0x6f;
 462:	85 e3       	ldi	r24, 0x35	; 53
 464:	90 e0       	ldi	r25, 0x00	; 0
 466:	2f e6       	ldi	r18, 0x6F	; 111
 468:	fc 01       	movw	r30, r24
 46a:	20 83       	st	Z, r18
		   
	   }
	
	    
    }
 46c:	1c ce       	rjmp	.-968    	; 0xa6 <main+0x3a>

0000046e <_exit>:
 46e:	f8 94       	cli

00000470 <__stop_program>:
 470:	ff cf       	rjmp	.-2      	; 0x470 <__stop_program>
